target datalayout = "e-m:e-p270:32:32-p271:32:32-p272:64:64-i64:64-i128:128-f80:128-n8:16:32:64-S128"
target triple = "x86_64-pc-linux-gnu"

%struct.LWLock = type { i16, %struct.pg_atomic_uint32, %struct.proclist_head }
%struct.pg_atomic_uint32 = type { i32 }
%struct.proclist_head = type { i32, i32 }
%struct.dlist_head = type { %struct.dlist_node }
%struct.dlist_node = type { ptr, ptr }
%struct.SERIALIZABLEXACT = type { %struct.VirtualTransactionId, i64, i64, %union.anon, %struct.dlist_head, %struct.dlist_head, %struct.dlist_head, %struct.dlist_node, %struct.dlist_node, %struct.LWLock, %struct.dlist_head, i32, i32, i32, i32, i32, i32 }
%struct.VirtualTransactionId = type { i32, i32 }
%union.anon = type { i64 }

@MySerializableXact = internal global ptr null, align 8
@MyXactDidWrite = internal global i8 0, align 1
@LocalPredicateLockHash = internal global ptr null, align 8

; Function Attrs: nounwind uwtable
define dso_local void @PostPrepare_PredicateLocks(i32 noundef %0) #0 {
  %2 = alloca i32, align 4
  store i32 %0, ptr %2, align 4
  %3 = load ptr, ptr @MySerializableXact, align 8
  %4 = icmp eq ptr %3, null
  br i1 %4, label %5, label %6

5:                                                ; preds = %1
  br label %12

6:                                                ; preds = %1
  %7 = load ptr, ptr @MySerializableXact, align 8
  %8 = getelementptr inbounds nuw %struct.SERIALIZABLEXACT, ptr %7, i32 0, i32 15
  store i32 0, ptr %8, align 8
  %9 = load ptr, ptr @MySerializableXact, align 8
  %10 = getelementptr inbounds nuw %struct.SERIALIZABLEXACT, ptr %9, i32 0, i32 16
  store i32 -1, ptr %10, align 4
  %11 = load ptr, ptr @LocalPredicateLockHash, align 8
  call void @hash_destroy(ptr noundef %11)
  store ptr null, ptr @LocalPredicateLockHash, align 8
  store ptr null, ptr @MySerializableXact, align 8
  store i8 0, ptr @MyXactDidWrite, align 1
  br label %12

12:                                               ; preds = %6, %5
  ret void
}