; Function Attrs: nounwind uwtable
define dso_local void @PostPrepare_PredicateLocks(i32 noundef %0) local_unnamed_addr #0 {
  %2 = load ptr, ptr @MySerializableXact, align 8
  %3 = icmp eq ptr %2, null
  br i1 %3, label %8, label %4

4:                                                ; preds = %1
  %5 = getelementptr inbounds nuw i8, ptr %2, i64 160
  store i32 0, ptr %5, align 8
  %6 = getelementptr inbounds nuw i8, ptr %2, i64 164
  store i32 -1, ptr %6, align 4
  %7 = load ptr, ptr @LocalPredicateLockHash, align 8
  tail call void @hash_destroy(ptr noundef %7) #12
  store ptr null, ptr @LocalPredicateLockHash, align 8
  store ptr null, ptr @MySerializableXact, align 8
  store i1 false, ptr @MyXactDidWrite, align 1
  br label %8

8:                                                ; preds = %1, %4
  ret void
}